target datalayout = "e-m:e-p270:32:32-p271:32:32-p272:64:64-i64:64-i128:128-f80:128-n8:16:32:64-S128"
target triple = "x86_64-pc-linux-gnu"

; Function Attrs: nounwind uwtable
define internal double @pink_filter(double noundef %0, ptr noundef %1) #1 {
  %3 = alloca double, align 8
  %4 = alloca ptr, align 8
  %5 = alloca double, align 8
  store double %0, ptr %3, align 8, !tbaa !44
  store ptr %1, ptr %4, align 8, !tbaa !42
  call void @llvm.lifetime.start.p0(i64 8, ptr %5) #7
  %6 = load ptr, ptr %4, align 8, !tbaa !42
  %7 = getelementptr inbounds double, ptr %6, i64 0
  %8 = load double, ptr %7, align 8, !tbaa !44
  %9 = load double, ptr %3, align 8, !tbaa !44
  %10 = fmul nsz double %9, 5.551790e-02
  %11 = call nsz double @llvm.fmuladd.f64(double 0x3FEFF6A93F290ABB, double %8, double %10)
  %12 = load ptr, ptr %4, align 8, !tbaa !42
  %13 = getelementptr inbounds double, ptr %12, i64 0
  store double %11, ptr %13, align 8, !tbaa !44
  %14 = load ptr, ptr %4, align 8, !tbaa !42
  %15 = getelementptr inbounds double, ptr %14, i64 1
  %16 = load double, ptr %15, align 8, !tbaa !44
  %17 = load double, ptr %3, align 8, !tbaa !44
  %18 = fmul nsz double %17, 7.507590e-02
  %19 = call nsz double @llvm.fmuladd.f64(double 0x3FEFC947064ECE9A, double %16, double %18)
  %20 = load ptr, ptr %4, align 8, !tbaa !42
  %21 = getelementptr inbounds double, ptr %20, i64 1
  store double %19, ptr %21, align 8, !tbaa !44
  %22 = load ptr, ptr %4, align 8, !tbaa !42
  %23 = getelementptr inbounds double, ptr %22, i64 2
  %24 = load double, ptr %23, align 8, !tbaa !44
  %25 = load double, ptr %3, align 8, !tbaa !44
  %26 = fmul nsz double %25, 1.538520e-01
  %27 = call nsz double @llvm.fmuladd.f64(double 0x3FEF020C49BA5E35, double %24, double %26)
  %28 = load ptr, ptr %4, align 8, !tbaa !42
  %29 = getelementptr inbounds double, ptr %28, i64 2
  store double %27, ptr %29, align 8, !tbaa !44
  %30 = load ptr, ptr %4, align 8, !tbaa !42
  %31 = getelementptr inbounds double, ptr %30, i64 3
  %32 = load double, ptr %31, align 8, !tbaa !44
  %33 = load double, ptr %3, align 8, !tbaa !44
  %34 = fmul nsz double %33, 0x3FD3DEFEFE784083
  %35 = call nsz double @llvm.fmuladd.f64(double 8.665000e-01, double %32, double %34)
  %36 = load ptr, ptr %4, align 8, !tbaa !42
  %37 = getelementptr inbounds double, ptr %36, i64 3
  store double %35, ptr %37, align 8, !tbaa !44
  %38 = load ptr, ptr %4, align 8, !tbaa !42
  %39 = getelementptr inbounds double, ptr %38, i64 4
  %40 = load double, ptr %39, align 8, !tbaa !44
  %41 = load double, ptr %3, align 8, !tbaa !44
  %42 = fmul nsz double %41, 0x3FE10DF1C5AA999C
  %43 = call nsz double @llvm.fmuladd.f64(double 5.500000e-01, double %40, double %42)
  %44 = load ptr, ptr %4, align 8, !tbaa !42
  %45 = getelementptr inbounds double, ptr %44, i64 4
  store double %43, ptr %45, align 8, !tbaa !44
  %46 = load ptr, ptr %4, align 8, !tbaa !42
  %47 = getelementptr inbounds double, ptr %46, i64 5
  %48 = load double, ptr %47, align 8, !tbaa !44
  %49 = load double, ptr %3, align 8, !tbaa !44
  %50 = fmul nsz double %49, 1.689800e-02
  %51 = fneg nsz double %50
  %52 = call nsz double @llvm.fmuladd.f64(double -7.616000e-01, double %48, double %51)
  %53 = load ptr, ptr %4, align 8, !tbaa !42
  %54 = getelementptr inbounds double, ptr %53, i64 5
  store double %52, ptr %54, align 8, !tbaa !44
  %55 = load ptr, ptr %4, align 8, !tbaa !42
  %56 = getelementptr inbounds double, ptr %55, i64 0
  %57 = load double, ptr %56, align 8, !tbaa !44
  %58 = load ptr, ptr %4, align 8, !tbaa !42
  %59 = getelementptr inbounds double, ptr %58, i64 1
  %60 = load double, ptr %59, align 8, !tbaa !44
  %61 = fadd nsz double %57, %60
  %62 = load ptr, ptr %4, align 8, !tbaa !42
  %63 = getelementptr inbounds double, ptr %62, i64 2
  %64 = load double, ptr %63, align 8, !tbaa !44
  %65 = fadd nsz double %61, %64
  %66 = load ptr, ptr %4, align 8, !tbaa !42
  %67 = getelementptr inbounds double, ptr %66, i64 3
  %68 = load double, ptr %67, align 8, !tbaa !44
  %69 = fadd nsz double %65, %68
  %70 = load ptr, ptr %4, align 8, !tbaa !42
  %71 = getelementptr inbounds double, ptr %70, i64 4
  %72 = load double, ptr %71, align 8, !tbaa !44
  %73 = fadd nsz double %69, %72
  %74 = load ptr, ptr %4, align 8, !tbaa !42
  %75 = getelementptr inbounds double, ptr %74, i64 5
  %76 = load double, ptr %75, align 8, !tbaa !44
  %77 = fadd nsz double %73, %76
  %78 = load ptr, ptr %4, align 8, !tbaa !42
  %79 = getelementptr inbounds double, ptr %78, i64 6
  %80 = load double, ptr %79, align 8, !tbaa !44
  %81 = fadd nsz double %77, %80
  %82 = load double, ptr %3, align 8, !tbaa !44
  %83 = call nsz double @llvm.fmuladd.f64(double %82, double 5.362000e-01, double %81)
  store double %83, ptr %5, align 8, !tbaa !44
  %84 = load double, ptr %3, align 8, !tbaa !44
  %85 = fmul nsz double %84, 1.159260e-01
  %86 = load ptr, ptr %4, align 8, !tbaa !42
  %87 = getelementptr inbounds double, ptr %86, i64 6
  store double %85, ptr %87, align 8, !tbaa !44
  %88 = load double, ptr %5, align 8, !tbaa !44
  %89 = fmul nsz double %88, 1.100000e-01
  call void @llvm.lifetime.end.p0(i64 8, ptr %5) #7
  ret double %89
}